target datalayout = "e-m:e-p270:32:32-p271:32:32-p272:64:64-i64:64-i128:128-f80:128-n8:16:32:64-S128"
target triple = "x86_64-pc-linux-gnu"

%struct.AVFormatContext = type { ptr, ptr, ptr, ptr, ptr, i32, i32, ptr, i32, ptr, i32, ptr, ptr, i64, i64, i64, i32, i32, i32, i64, i64, ptr, i32, i32, ptr, i32, i32, i32, i32, ptr, i64, i32, i32, %struct.AVIOInterruptCB, i32, i32, i32, i32, i64, i32, i32, i32, i32, i32, i32, i32, i32, i32, i32, i32, i32, i64, i32, i32, i32, i32, i32, ptr, ptr, ptr, ptr, i32, ptr, ptr, ptr, ptr, i32, ptr, ptr, i64, ptr, ptr, ptr, i64 }
%struct.AVIOInterruptCB = type { ptr, ptr }
%struct.AVStream = type { ptr, i32, i32, ptr, ptr, %struct.AVRational, i64, i64, i64, i32, i32, %struct.AVRational, ptr, %struct.AVRational, %struct.AVPacket, i32, %struct.AVRational, i32 }
%struct.AVPacket = type { ptr, i64, i64, ptr, i32, i32, i32, ptr, i32, i64, i64, ptr, ptr, %struct.AVRational }
%struct.AVRational = type { i32, i32 }
%struct.AVCodecParameters = type { i32, i32, i32, ptr, i32, ptr, i32, i32, i64, i32, i32, i32, i32, i32, i32, %struct.AVRational, %struct.AVRational, i32, i32, i32, i32, i32, i32, i32, %struct.AVChannelLayout, i32, i32, i32, i32, i32, i32 }
%struct.AVChannelLayout = type { i32, i32, %union.anon, ptr }
%union.anon = type { i64 }

@.str.3 = private unnamed_addr constant [1 x i8] zeroinitializer, align 1
@.str.4 = private unnamed_addr constant [21 x i8] c" XCOLORRANGE=LIMITED\00", align 1
@.str.5 = private unnamed_addr constant [18 x i8] c" XCOLORRANGE=FULL\00", align 1
@.str.6 = private unnamed_addr constant [7 x i8] c" Cmono\00", align 1
@.str.7 = private unnamed_addr constant [8 x i8] c" Cmono9\00", align 1
@.str.8 = private unnamed_addr constant [9 x i8] c" Cmono10\00", align 1
@.str.9 = private unnamed_addr constant [9 x i8] c" Cmono12\00", align 1
@.str.10 = private unnamed_addr constant [9 x i8] c" Cmono16\00", align 1
@.str.11 = private unnamed_addr constant [17 x i8] c" C411 XYSCSS=411\00", align 1
@.str.12 = private unnamed_addr constant [25 x i8] c" C420jpeg XYSCSS=420JPEG\00", align 1
@.str.13 = private unnamed_addr constant [17 x i8] c" C422 XYSCSS=422\00", align 1
@.str.14 = private unnamed_addr constant [17 x i8] c" C444 XYSCSS=444\00", align 1
@.str.15 = private unnamed_addr constant [27 x i8] c" C420paldv XYSCSS=420PALDV\00", align 1
@.str.16 = private unnamed_addr constant [27 x i8] c" C420mpeg2 XYSCSS=420MPEG2\00", align 1
@.str.17 = private unnamed_addr constant [22 x i8] c" C444alpha XYSCSS=444\00", align 1
@.str.18 = private unnamed_addr constant [21 x i8] c" C420p9 XYSCSS=420P9\00", align 1
@.str.19 = private unnamed_addr constant [21 x i8] c" C422p9 XYSCSS=422P9\00", align 1
@.str.20 = private unnamed_addr constant [21 x i8] c" C444p9 XYSCSS=444P9\00", align 1
@.str.21 = private unnamed_addr constant [23 x i8] c" C420p10 XYSCSS=420P10\00", align 1
@.str.22 = private unnamed_addr constant [23 x i8] c" C422p10 XYSCSS=422P10\00", align 1
@.str.23 = private unnamed_addr constant [23 x i8] c" C444p10 XYSCSS=444P10\00", align 1
@.str.24 = private unnamed_addr constant [23 x i8] c" C420p12 XYSCSS=420P12\00", align 1
@.str.25 = private unnamed_addr constant [23 x i8] c" C422p12 XYSCSS=422P12\00", align 1
@.str.26 = private unnamed_addr constant [23 x i8] c" C444p12 XYSCSS=444P12\00", align 1
@.str.27 = private unnamed_addr constant [23 x i8] c" C420p14 XYSCSS=420P14\00", align 1
@.str.28 = private unnamed_addr constant [23 x i8] c" C422p14 XYSCSS=422P14\00", align 1
@.str.29 = private unnamed_addr constant [23 x i8] c" C444p14 XYSCSS=444P14\00", align 1
@.str.30 = private unnamed_addr constant [23 x i8] c" C420p16 XYSCSS=420P16\00", align 1
@.str.31 = private unnamed_addr constant [23 x i8] c" C422p16 XYSCSS=422P16\00", align 1
@.str.32 = private unnamed_addr constant [23 x i8] c" C444p16 XYSCSS=444P16\00", align 1
@.str.33 = private unnamed_addr constant [41 x i8] c"YUV4MPEG2 W%d H%d F%d:%d I%c A%d:%d%s%s\0A\00", align 1
@.str.34 = private unnamed_addr constant [45 x i8] c"Error. YUV4MPEG stream header write failed.\0A\00", align 1

; Function Attrs: nounwind uwtable
define internal i32 @yuv4_write_header(ptr noundef %0) #0 {
  %2 = alloca i32, align 4
  %3 = alloca ptr, align 8
  %4 = alloca ptr, align 8
  %5 = alloca ptr, align 8
  %6 = alloca i32, align 4
  %7 = alloca i32, align 4
  %8 = alloca i32, align 4
  %9 = alloca i32, align 4
  %10 = alloca i32, align 4
  %11 = alloca i32, align 4
  %12 = alloca i32, align 4
  %13 = alloca i8, align 1
  %14 = alloca ptr, align 8
  %15 = alloca ptr, align 8
  %16 = alloca i32, align 4
  %17 = alloca i32, align 4
  store ptr %0, ptr %3, align 8, !tbaa !4
  call void @llvm.lifetime.start.p0(i64 8, ptr %4) #4
  call void @llvm.lifetime.start.p0(i64 8, ptr %5) #4
  %18 = load ptr, ptr %3, align 8, !tbaa !4
  %19 = getelementptr inbounds nuw %struct.AVFormatContext, ptr %18, i32 0, i32 4
  %20 = load ptr, ptr %19, align 8, !tbaa !9
  store ptr %20, ptr %5, align 8, !tbaa !26
  call void @llvm.lifetime.start.p0(i64 4, ptr %6) #4
  call void @llvm.lifetime.start.p0(i64 4, ptr %7) #4
  call void @llvm.lifetime.start.p0(i64 4, ptr %8) #4
  call void @llvm.lifetime.start.p0(i64 4, ptr %9) #4
  call void @llvm.lifetime.start.p0(i64 4, ptr %10) #4
  call void @llvm.lifetime.start.p0(i64 4, ptr %11) #4
  call void @llvm.lifetime.start.p0(i64 4, ptr %12) #4
  call void @llvm.lifetime.start.p0(i64 1, ptr %13) #4
  call void @llvm.lifetime.start.p0(i64 8, ptr %14) #4
  store ptr @.str.3, ptr %14, align 8, !tbaa !27
  call void @llvm.lifetime.start.p0(i64 8, ptr %15) #4
  store ptr @.str.3, ptr %15, align 8, !tbaa !27
  call void @llvm.lifetime.start.p0(i64 4, ptr %16) #4
  %21 = load ptr, ptr %3, align 8, !tbaa !4
  %22 = getelementptr inbounds nuw %struct.AVFormatContext, ptr %21, i32 0, i32 7
  %23 = load ptr, ptr %22, align 8, !tbaa !28
  %24 = getelementptr inbounds ptr, ptr %23, i64 0
  %25 = load ptr, ptr %24, align 8, !tbaa !29
  store ptr %25, ptr %4, align 8, !tbaa !29
  %26 = load ptr, ptr %4, align 8, !tbaa !29
  %27 = getelementptr inbounds nuw %struct.AVStream, ptr %26, i32 0, i32 3
  %28 = load ptr, ptr %27, align 8, !tbaa !31
  %29 = getelementptr inbounds nuw %struct.AVCodecParameters, ptr %28, i32 0, i32 13
  %30 = load i32, ptr %29, align 8, !tbaa !38
  store i32 %30, ptr %6, align 4, !tbaa !41
  %31 = load ptr, ptr %4, align 8, !tbaa !29
  %32 = getelementptr inbounds nuw %struct.AVStream, ptr %31, i32 0, i32 3
  %33 = load ptr, ptr %32, align 8, !tbaa !31
  %34 = getelementptr inbounds nuw %struct.AVCodecParameters, ptr %33, i32 0, i32 14
  %35 = load i32, ptr %34, align 4, !tbaa !42
  store i32 %35, ptr %7, align 4, !tbaa !41
  %36 = load ptr, ptr %4, align 8, !tbaa !29
  %37 = getelementptr inbounds nuw %struct.AVStream, ptr %36, i32 0, i32 3
  %38 = load ptr, ptr %37, align 8, !tbaa !31
  %39 = getelementptr inbounds nuw %struct.AVCodecParameters, ptr %38, i32 0, i32 17
  %40 = load i32, ptr %39, align 8, !tbaa !43
  store i32 %40, ptr %16, align 4, !tbaa !41
  %41 = load ptr, ptr %4, align 8, !tbaa !29
  %42 = getelementptr inbounds nuw %struct.AVStream, ptr %41, i32 0, i32 5
  %43 = getelementptr inbounds nuw %struct.AVRational, ptr %42, i32 0, i32 1
  %44 = load i32, ptr %43, align 4, !tbaa !44
  %45 = sext i32 %44 to i64
  %46 = load ptr, ptr %4, align 8, !tbaa !29
  %47 = getelementptr inbounds nuw %struct.AVStream, ptr %46, i32 0, i32 5
  %48 = getelementptr inbounds nuw %struct.AVRational, ptr %47, i32 0, i32 0
  %49 = load i32, ptr %48, align 8, !tbaa !45
  %50 = sext i32 %49 to i64
  %51 = call i32 @av_reduce(ptr noundef %8, ptr noundef %9, i64 noundef %45, i64 noundef %50, i64 noundef 2147483647)
  %52 = load ptr, ptr %4, align 8, !tbaa !29
  %53 = getelementptr inbounds nuw %struct.AVStream, ptr %52, i32 0, i32 11
  %54 = getelementptr inbounds nuw %struct.AVRational, ptr %53, i32 0, i32 0
  %55 = load i32, ptr %54, align 8, !tbaa !46
  store i32 %55, ptr %10, align 4, !tbaa !41
  %56 = load ptr, ptr %4, align 8, !tbaa !29
  %57 = getelementptr inbounds nuw %struct.AVStream, ptr %56, i32 0, i32 11
  %58 = getelementptr inbounds nuw %struct.AVRational, ptr %57, i32 0, i32 1
  %59 = load i32, ptr %58, align 4, !tbaa !47
  store i32 %59, ptr %11, align 4, !tbaa !41
  %60 = load i32, ptr %10, align 4, !tbaa !41
  %61 = icmp eq i32 %60, 0
  br i1 %61, label %62, label %66

62:                                               ; preds = %1
  %63 = load i32, ptr %11, align 4, !tbaa !41
  %64 = icmp eq i32 %63, 1
  br i1 %64, label %65, label %66

65:                                               ; preds = %62
  store i32 0, ptr %11, align 4, !tbaa !41
  br label %66

66:                                               ; preds = %65, %62, %1
  %67 = load ptr, ptr %4, align 8, !tbaa !29
  %68 = getelementptr inbounds nuw %struct.AVStream, ptr %67, i32 0, i32 3
  %69 = load ptr, ptr %68, align 8, !tbaa !31
  %70 = getelementptr inbounds nuw %struct.AVCodecParameters, ptr %69, i32 0, i32 18
  %71 = load i32, ptr %70, align 4, !tbaa !48
  switch i32 %71, label %74 [
    i32 1, label %72
    i32 2, label %73
  ]

72:                                               ; preds = %66
  store ptr @.str.4, ptr %15, align 8, !tbaa !27
  br label %75

73:                                               ; preds = %66
  store ptr @.str.5, ptr %15, align 8, !tbaa !27
  br label %75

74:                                               ; preds = %66
  br label %75

75:                                               ; preds = %74, %73, %72
  %76 = load i32, ptr %16, align 4, !tbaa !41
  switch i32 %76, label %79 [
    i32 4, label %77
    i32 2, label %77
    i32 5, label %78
    i32 3, label %78
  ]

77:                                               ; preds = %75, %75
  store i8 116, ptr %13, align 1, !tbaa !49
  br label %80

78:                                               ; preds = %75, %75
  store i8 98, ptr %13, align 1, !tbaa !49
  br label %80

79:                                               ; preds = %75
  store i8 112, ptr %13, align 1, !tbaa !49
  br label %80

80:                                               ; preds = %79, %78, %77
  %81 = load ptr, ptr %4, align 8, !tbaa !29
  %82 = getelementptr inbounds nuw %struct.AVStream, ptr %81, i32 0, i32 3
  %83 = load ptr, ptr %82, align 8, !tbaa !31
  %84 = getelementptr inbounds nuw %struct.AVCodecParameters, ptr %83, i32 0, i32 7
  %85 = load i32, ptr %84, align 4, !tbaa !50
  switch i32 %85, label %123 [
    i32 8, label %86
    i32 173, label %87
    i32 168, label %88
    i32 166, label %89
    i32 30, label %90
    i32 7, label %91
    i32 12, label %92
    i32 13, label %93
    i32 14, label %94
    i32 0, label %95
    i32 4, label %105
    i32 5, label %106
    i32 79, label %107
    i32 60, label %108
    i32 70, label %109
    i32 66, label %110
    i32 62, label %111
    i32 64, label %112
    i32 68, label %113
    i32 123, label %114
    i32 127, label %115
    i32 131, label %116
    i32 125, label %117
    i32 129, label %118
    i32 133, label %119
    i32 45, label %120
    i32 47, label %121
    i32 49, label %122
  ]

86:                                               ; preds = %80
  store ptr @.str.6, ptr %14, align 8, !tbaa !27
  br label %123

87:                                               ; preds = %80
  store ptr @.str.7, ptr %14, align 8, !tbaa !27
  br label %123

88:                                               ; preds = %80
  store ptr @.str.8, ptr %14, align 8, !tbaa !27
  br label %123

89:                                               ; preds = %80
  store ptr @.str.9, ptr %14, align 8, !tbaa !27
  br label %123

90:                                               ; preds = %80
  store ptr @.str.10, ptr %14, align 8, !tbaa !27
  br label %123

91:                                               ; preds = %80
  store ptr @.str.11, ptr %14, align 8, !tbaa !27
  br label %123

92:                                               ; preds = %80
  store ptr @.str.12, ptr %14, align 8, !tbaa !27
  store ptr @.str.5, ptr %15, align 8, !tbaa !27
  br label %123

93:                                               ; preds = %80
  store ptr @.str.13, ptr %14, align 8, !tbaa !27
  store ptr @.str.5, ptr %15, align 8, !tbaa !27
  br label %123

94:                                               ; preds = %80
  store ptr @.str.14, ptr %14, align 8, !tbaa !27
  store ptr @.str.5, ptr %15, align 8, !tbaa !27
  br label %123

95:                                               ; preds = %80
  %96 = load ptr, ptr %4, align 8, !tbaa !29
  %97 = getelementptr inbounds nuw %struct.AVStream, ptr %96, i32 0, i32 3
  %98 = load ptr, ptr %97, align 8, !tbaa !31
  %99 = getelementptr inbounds nuw %struct.AVCodecParameters, ptr %98, i32 0, i32 22
  %100 = load i32, ptr %99, align 4, !tbaa !51
  switch i32 %100, label %103 [
    i32 3, label %101
    i32 1, label %102
  ]

101:                                              ; preds = %95
  store ptr @.str.15, ptr %14, align 8, !tbaa !27
  br label %104

102:                                              ; preds = %95
  store ptr @.str.16, ptr %14, align 8, !tbaa !27
  br label %104

103:                                              ; preds = %95
  store ptr @.str.12, ptr %14, align 8, !tbaa !27
  br label %104

104:                                              ; preds = %103, %102, %101
  br label %123

105:                                              ; preds = %80
  store ptr @.str.13, ptr %14, align 8, !tbaa !27
  br label %123

106:                                              ; preds = %80
  store ptr @.str.14, ptr %14, align 8, !tbaa !27
  br label %123

107:                                              ; preds = %80
  store ptr @.str.17, ptr %14, align 8, !tbaa !27
  br label %123

108:                                              ; preds = %80
  store ptr @.str.18, ptr %14, align 8, !tbaa !27
  br label %123

109:                                              ; preds = %80
  store ptr @.str.19, ptr %14, align 8, !tbaa !27
  br label %123

110:                                              ; preds = %80
  store ptr @.str.20, ptr %14, align 8, !tbaa !27
  br label %123

111:                                              ; preds = %80
  store ptr @.str.21, ptr %14, align 8, !tbaa !27
  br label %123

112:                                              ; preds = %80
  store ptr @.str.22, ptr %14, align 8, !tbaa !27
  br label %123

113:                                              ; preds = %80
  store ptr @.str.23, ptr %14, align 8, !tbaa !27
  br label %123

114:                                              ; preds = %80
  store ptr @.str.24, ptr %14, align 8, !tbaa !27
  br label %123

115:                                              ; preds = %80
  store ptr @.str.25, ptr %14, align 8, !tbaa !27
  br label %123

116:                                              ; preds = %80
  store ptr @.str.26, ptr %14, align 8, !tbaa !27
  br label %123

117:                                              ; preds = %80
  store ptr @.str.27, ptr %14, align 8, !tbaa !27
  br label %123

118:                                              ; preds = %80
  store ptr @.str.28, ptr %14, align 8, !tbaa !27
  br label %123

119:                                              ; preds = %80
  store ptr @.str.29, ptr %14, align 8, !tbaa !27
  br label %123

120:                                              ; preds = %80
  store ptr @.str.30, ptr %14, align 8, !tbaa !27
  br label %123

121:                                              ; preds = %80
  store ptr @.str.31, ptr %14, align 8, !tbaa !27
  br label %123

122:                                              ; preds = %80
  store ptr @.str.32, ptr %14, align 8, !tbaa !27
  br label %123

123:                                              ; preds = %80, %122, %121, %120, %119, %118, %117, %116, %115, %114, %113, %112, %111, %110, %109, %108, %107, %106, %105, %104, %94, %93, %92, %91, %90, %89, %88, %87, %86
  %124 = load ptr, ptr %5, align 8, !tbaa !26
  %125 = load i32, ptr %6, align 4, !tbaa !41
  %126 = load i32, ptr %7, align 4, !tbaa !41
  %127 = load i32, ptr %8, align 4, !tbaa !41
  %128 = load i32, ptr %9, align 4, !tbaa !41
  %129 = load i8, ptr %13, align 1, !tbaa !49
  %130 = sext i8 %129 to i32
  %131 = load i32, ptr %10, align 4, !tbaa !41
  %132 = load i32, ptr %11, align 4, !tbaa !41
  %133 = load ptr, ptr %14, align 8, !tbaa !27
  %134 = load ptr, ptr %15, align 8, !tbaa !27
  %135 = call i32 (ptr, ptr, ...) @avio_printf(ptr noundef %124, ptr noundef @.str.33, i32 noundef %125, i32 noundef %126, i32 noundef %127, i32 noundef %128, i32 noundef %130, i32 noundef %131, i32 noundef %132, ptr noundef %133, ptr noundef %134)
  store i32 %135, ptr %12, align 4, !tbaa !41
  %136 = load i32, ptr %12, align 4, !tbaa !41
  %137 = icmp slt i32 %136, 0
  br i1 %137, label %138, label %141

138:                                              ; preds = %123
  %139 = load ptr, ptr %3, align 8, !tbaa !4
  call void (ptr, i32, ptr, ...) @av_log(ptr noundef %139, i32 noundef 16, ptr noundef @.str.34)
  %140 = load i32, ptr %12, align 4, !tbaa !41
  store i32 %140, ptr %2, align 4
  store i32 1, ptr %17, align 4
  br label %142

141:                                              ; preds = %123
  store i32 0, ptr %2, align 4
  store i32 1, ptr %17, align 4
  br label %142

142:                                              ; preds = %141, %138
  call void @llvm.lifetime.end.p0(i64 4, ptr %16) #4
  call void @llvm.lifetime.end.p0(i64 8, ptr %15) #4
  call void @llvm.lifetime.end.p0(i64 8, ptr %14) #4
  call void @llvm.lifetime.end.p0(i64 1, ptr %13) #4
  call void @llvm.lifetime.end.p0(i64 4, ptr %12) #4
  call void @llvm.lifetime.end.p0(i64 4, ptr %11) #4
  call void @llvm.lifetime.end.p0(i64 4, ptr %10) #4
  call void @llvm.lifetime.end.p0(i64 4, ptr %9) #4
  call void @llvm.lifetime.end.p0(i64 4, ptr %8) #4
  call void @llvm.lifetime.end.p0(i64 4, ptr %7) #4
  call void @llvm.lifetime.end.p0(i64 4, ptr %6) #4
  call void @llvm.lifetime.end.p0(i64 8, ptr %5) #4
  call void @llvm.lifetime.end.p0(i64 8, ptr %4) #4
  %143 = load i32, ptr %2, align 4
  ret i32 %143
}