; Function Attrs: nounwind uwtable
define internal range(i32 -2147483648, 1) i32 @yuv4_write_header(ptr noundef %0) #0 {
  %2 = alloca i32, align 4
  %3 = alloca i32, align 4
  %4 = getelementptr inbounds nuw i8, ptr %0, i64 32
  %5 = load ptr, ptr %4, align 8, !tbaa !4
  call void @llvm.lifetime.start.p0(i64 4, ptr nonnull %2) #3
  call void @llvm.lifetime.start.p0(i64 4, ptr nonnull %3) #3
  %6 = getelementptr inbounds nuw i8, ptr %0, i64 48
  %7 = load ptr, ptr %6, align 8, !tbaa !24
  %8 = load ptr, ptr %7, align 8, !tbaa !25
  %9 = getelementptr inbounds nuw i8, ptr %8, i64 16
  %10 = load ptr, ptr %9, align 8, !tbaa !27
  %11 = getelementptr inbounds nuw i8, ptr %10, i64 72
  %12 = load i32, ptr %11, align 8, !tbaa !34
  %13 = getelementptr inbounds nuw i8, ptr %10, i64 76
  %14 = load i32, ptr %13, align 4, !tbaa !37
  %15 = getelementptr inbounds nuw i8, ptr %10, i64 96
  %16 = load i32, ptr %15, align 8, !tbaa !38
  %17 = getelementptr inbounds nuw i8, ptr %8, i64 32
  %18 = getelementptr inbounds nuw i8, ptr %8, i64 36
  %19 = load i32, ptr %18, align 4, !tbaa !39
  %20 = sext i32 %19 to i64
  %21 = load i32, ptr %17, align 8, !tbaa !40
  %22 = sext i32 %21 to i64
  %23 = call i32 @av_reduce(ptr noundef nonnull %2, ptr noundef nonnull %3, i64 noundef %20, i64 noundef %22, i64 noundef 2147483647) #3
  %24 = getelementptr inbounds nuw i8, ptr %8, i64 72
  %25 = load i32, ptr %24, align 8, !tbaa !41
  %26 = getelementptr inbounds nuw i8, ptr %8, i64 76
  %27 = load i32, ptr %26, align 4, !tbaa !42
  %28 = icmp eq i32 %25, 0
  %29 = icmp eq i32 %27, 1
  %or.cond = select i1 %28, i1 %29, i1 false
  %spec.store.select = select i1 %or.cond, i32 0, i32 %27
  %30 = load ptr, ptr %9, align 8, !tbaa !27
  %31 = getelementptr inbounds nuw i8, ptr %30, i64 100
  %32 = load i32, ptr %31, align 4, !tbaa !43
  %switch.selectcmp = icmp eq i32 %32, 2
  %switch.select = select i1 %switch.selectcmp, ptr @.str.5, ptr @.str.3
  %switch.selectcmp31 = icmp eq i32 %32, 1
  %switch.select32 = select i1 %switch.selectcmp31, ptr @.str.4, ptr %switch.select
  %switch.tableidx = add i32 %16, -2
  %33 = icmp ult i32 %switch.tableidx, 4
  br i1 %33, label %switch.lookup, label %35

switch.lookup:                                    ; preds = %1
  %34 = zext nneg i32 %switch.tableidx to i64
  %switch.gep = getelementptr inbounds nuw [4 x i32], ptr @switch.table.yuv4_write_header, i64 0, i64 %34
  %switch.load = load i32, ptr %switch.gep, align 4
  br label %35

35:                                               ; preds = %1, %switch.lookup
  %.029 = phi i32 [ %switch.load, %switch.lookup ], [ 112, %1 ]
  %36 = getelementptr inbounds nuw i8, ptr %30, i64 44
  %37 = load i32, ptr %36, align 4, !tbaa !44
  switch i32 %37, label %70 [
    i32 8, label %38
    i32 173, label %39
    i32 168, label %40
    i32 166, label %41
    i32 30, label %42
    i32 7, label %43
    i32 12, label %44
    i32 13, label %45
    i32 14, label %46
    i32 0, label %47
    i32 4, label %52
    i32 5, label %53
    i32 79, label %54
    i32 60, label %55
    i32 70, label %56
    i32 66, label %57
    i32 62, label %58
    i32 64, label %59
    i32 68, label %60
    i32 123, label %61
    i32 127, label %62
    i32 131, label %63
    i32 125, label %64
    i32 129, label %65
    i32 133, label %66
    i32 45, label %67
    i32 47, label %68
    i32 49, label %69
  ]

38:                                               ; preds = %35
  br label %70

39:                                               ; preds = %35
  br label %70

40:                                               ; preds = %35
  br label %70

41:                                               ; preds = %35
  br label %70

42:                                               ; preds = %35
  br label %70

43:                                               ; preds = %35
  br label %70

44:                                               ; preds = %35
  br label %70

45:                                               ; preds = %35
  br label %70

46:                                               ; preds = %35
  br label %70

47:                                               ; preds = %35
  %48 = getelementptr inbounds nuw i8, ptr %30, i64 116
  %49 = load i32, ptr %48, align 4, !tbaa !45
  switch i32 %49, label %51 [
    i32 3, label %70
    i32 1, label %50
  ]

50:                                               ; preds = %47
  br label %70

51:                                               ; preds = %47
  br label %70

52:                                               ; preds = %35
  br label %70

53:                                               ; preds = %35
  br label %70

54:                                               ; preds = %35
  br label %70

55:                                               ; preds = %35
  br label %70

56:                                               ; preds = %35
  br label %70

57:                                               ; preds = %35
  br label %70

58:                                               ; preds = %35
  br label %70

59:                                               ; preds = %35
  br label %70

60:                                               ; preds = %35
  br label %70

61:                                               ; preds = %35
  br label %70

62:                                               ; preds = %35
  br label %70

63:                                               ; preds = %35
  br label %70

64:                                               ; preds = %35
  br label %70

65:                                               ; preds = %35
  br label %70

66:                                               ; preds = %35
  br label %70

67:                                               ; preds = %35
  br label %70

68:                                               ; preds = %35
  br label %70

69:                                               ; preds = %35
  br label %70

70:                                               ; preds = %47, %50, %51, %69, %68, %67, %66, %65, %64, %63, %62, %61, %60, %59, %58, %57, %56, %55, %54, %53, %52, %46, %45, %44, %43, %42, %41, %40, %39, %38, %35
  %.028 = phi ptr [ @.str.3, %35 ], [ @.str.32, %69 ], [ @.str.31, %68 ], [ @.str.30, %67 ], [ @.str.29, %66 ], [ @.str.28, %65 ], [ @.str.27, %64 ], [ @.str.26, %63 ], [ @.str.25, %62 ], [ @.str.24, %61 ], [ @.str.23, %60 ], [ @.str.22, %59 ], [ @.str.21, %58 ], [ @.str.20, %57 ], [ @.str.19, %56 ], [ @.str.18, %55 ], [ @.str.17, %54 ], [ @.str.14, %53 ], [ @.str.13, %52 ], [ @.str.12, %51 ], [ @.str.16, %50 ], [ @.str.14, %46 ], [ @.str.13, %45 ], [ @.str.12, %44 ], [ @.str.11, %43 ], [ @.str.10, %42 ], [ @.str.9, %41 ], [ @.str.8, %40 ], [ @.str.7, %39 ], [ @.str.6, %38 ], [ @.str.15, %47 ]
  %.1 = phi ptr [ %switch.select32, %35 ], [ %switch.select32, %69 ], [ %switch.select32, %68 ], [ %switch.select32, %67 ], [ %switch.select32, %66 ], [ %switch.select32, %65 ], [ %switch.select32, %64 ], [ %switch.select32, %63 ], [ %switch.select32, %62 ], [ %switch.select32, %61 ], [ %switch.select32, %60 ], [ %switch.select32, %59 ], [ %switch.select32, %58 ], [ %switch.select32, %57 ], [ %switch.select32, %56 ], [ %switch.select32, %55 ], [ %switch.select32, %54 ], [ %switch.select32, %53 ], [ %switch.select32, %52 ], [ %switch.select32, %51 ], [ %switch.select32, %50 ], [ @.str.5, %46 ], [ @.str.5, %45 ], [ @.str.5, %44 ], [ %switch.select32, %43 ], [ %switch.select32, %42 ], [ %switch.select32, %41 ], [ %switch.select32, %40 ], [ %switch.select32, %39 ], [ %switch.select32, %38 ], [ %switch.select32, %47 ]
  %71 = load i32, ptr %2, align 4, !tbaa !46
  %72 = load i32, ptr %3, align 4, !tbaa !46
  %73 = call i32 (ptr, ptr, ...) @avio_printf(ptr noundef %5, ptr noundef nonnull @.str.33, i32 noundef %12, i32 noundef %14, i32 noundef %71, i32 noundef %72, i32 noundef %.029, i32 noundef %25, i32 noundef %spec.store.select, ptr noundef nonnull %.028, ptr noundef nonnull %.1) #3
  %74 = icmp slt i32 %73, 0
  br i1 %74, label %75, label %76

75:                                               ; preds = %70
  call void (ptr, i32, ptr, ...) @av_log(ptr noundef nonnull %0, i32 noundef 16, ptr noundef nonnull @.str.34) #3
  br label %76

76:                                               ; preds = %70, %75
  %.0 = phi i32 [ %73, %75 ], [ 0, %70 ]
  call void @llvm.lifetime.end.p0(i64 4, ptr nonnull %3) #3
  call void @llvm.lifetime.end.p0(i64 4, ptr nonnull %2) #3
  ret i32 %.0
}